; Function Attrs: mustprogress uwtable
define hidden noundef ptr @_ZN7datalog16relation_manager24mk_permutation_rename_fnERKNS_13relation_baseEPKj(ptr noundef nonnull readnone align 8 captures(none) dereferenceable(200) %0, ptr noundef nonnull align 8 dereferenceable(28) %1, ptr noundef %2) local_unnamed_addr #4 align 2 personality ptr @__gxx_personality_v0 {
  %4 = getelementptr inbounds nuw i8, ptr %1, i64 8
  %5 = load ptr, ptr %4, align 8, !tbaa !426
  %6 = load ptr, ptr %5, align 8, !tbaa !3
  %7 = getelementptr inbounds nuw i8, ptr %6, i64 112
  %8 = load ptr, ptr %7, align 8
  %9 = tail call noundef ptr %8(ptr noundef nonnull align 8 dereferenceable(32) %5, ptr noundef nonnull align 8 dereferenceable(28) %1, ptr noundef %2)
  %.not = icmp eq ptr %9, null
  br i1 %.not, label %10, label %36

10:                                               ; preds = %3
  %11 = tail call noalias noundef ptr @_ZN6memory8allocateEm(i64 noundef 32)
  store ptr getelementptr inbounds nuw inrange(-16, 24) (i8, ptr @_ZTVN7datalog17tr_infrastructureINS_15relation_traitsEE29default_permutation_rename_fnE, i64 16), ptr %11, align 8, !tbaa !3
  %12 = getelementptr inbounds nuw i8, ptr %11, i64 8
  %13 = getelementptr inbounds nuw i8, ptr %1, i64 16
  %14 = load ptr, ptr %13, align 8, !tbaa !278
  %15 = icmp eq ptr %14, null
  br i1 %15, label %_ZNK6vectorIP4sortLb0EjE4sizeEv.exit.thread.i, label %_ZNK6vectorIP4sortLb0EjE4sizeEv.exit.i

_ZNK6vectorIP4sortLb0EjE4sizeEv.exit.thread.i:    ; preds = %10
  store ptr null, ptr %12, align 8, !tbaa !433
  br label %_ZN7datalog17tr_infrastructureINS_15relation_traitsEE29default_permutation_rename_fnC2ERKNS_13relation_baseEPKj.exit

_ZNK6vectorIP4sortLb0EjE4sizeEv.exit.i:           ; preds = %10
  %16 = getelementptr inbounds i8, ptr %14, i64 -4
  %17 = load i32, ptr %16, align 4, !tbaa !34
  store ptr null, ptr %12, align 8, !tbaa !433
  %.not.i.i.i = icmp eq i32 %17, 0
  br i1 %.not.i.i.i, label %_ZN7datalog17tr_infrastructureINS_15relation_traitsEE29default_permutation_rename_fnC2ERKNS_13relation_baseEPKj.exit, label %.lr.ph.preheader.i.i.i

.lr.ph.preheader.i.i.i:                           ; preds = %_ZNK6vectorIP4sortLb0EjE4sizeEv.exit.i
  %wide.trip.count.i.i.i = zext i32 %17 to i64
  br label %.lr.ph.i.i.i

.lr.ph.i.i.i:                                     ; preds = %_ZN6vectorIjLb0EjE9push_backERKj.exit.i.i.i, %.lr.ph.preheader.i.i.i
  %18 = phi ptr [ null, %.lr.ph.preheader.i.i.i ], [ %27, %_ZN6vectorIjLb0EjE9push_backERKj.exit.i.i.i ]
  %indvars.iv.i.i.i = phi i64 [ 0, %.lr.ph.preheader.i.i.i ], [ %indvars.iv.next.i.i.i, %_ZN6vectorIjLb0EjE9push_backERKj.exit.i.i.i ]
  %19 = getelementptr inbounds nuw i32, ptr %2, i64 %indvars.iv.i.i.i
  %20 = icmp eq ptr %18, null
  br i1 %20, label %.noexc.i, label %21

21:                                               ; preds = %.lr.ph.i.i.i
  %22 = getelementptr inbounds i8, ptr %18, i64 -4
  %23 = load i32, ptr %22, align 4, !tbaa !34
  %24 = getelementptr inbounds i8, ptr %18, i64 -8
  %25 = load i32, ptr %24, align 4, !tbaa !34
  %26 = icmp eq i32 %23, %25
  br i1 %26, label %.noexc.i, label %_ZN6vectorIjLb0EjE9push_backERKj.exit.i.i.i

.noexc.i:                                         ; preds = %21, %.lr.ph.i.i.i
  tail call void @_ZN6vectorIjLb0EjE13expand_vectorEv(ptr noundef nonnull align 8 dereferenceable(8) %12)
  %.pre.i.i.i.i = load ptr, ptr %12, align 8, !tbaa !433
  %.phi.trans.insert.i.i.i.i = getelementptr inbounds i8, ptr %.pre.i.i.i.i, i64 -4
  %.pre2.i.i.i.i = load i32, ptr %.phi.trans.insert.i.i.i.i, align 4, !tbaa !34
  br label %_ZN6vectorIjLb0EjE9push_backERKj.exit.i.i.i

_ZN6vectorIjLb0EjE9push_backERKj.exit.i.i.i:      ; preds = %.noexc.i, %21
  %27 = phi ptr [ %.pre.i.i.i.i, %.noexc.i ], [ %18, %21 ]
  %28 = phi i32 [ %.pre2.i.i.i.i, %.noexc.i ], [ %23, %21 ]
  %29 = getelementptr inbounds i8, ptr %27, i64 -4
  %30 = zext i32 %28 to i64
  %31 = getelementptr inbounds nuw i32, ptr %27, i64 %30
  %32 = load i32, ptr %19, align 4, !tbaa !34
  store i32 %32, ptr %31, align 4, !tbaa !34
  %33 = add i32 %28, 1
  store i32 %33, ptr %29, align 4, !tbaa !34
  %indvars.iv.next.i.i.i = add nuw nsw i64 %indvars.iv.i.i.i, 1
  %exitcond.not.i.i.i = icmp eq i64 %indvars.iv.next.i.i.i, %wide.trip.count.i.i.i
  br i1 %exitcond.not.i.i.i, label %_ZN7datalog17tr_infrastructureINS_15relation_traitsEE29default_permutation_rename_fnC2ERKNS_13relation_baseEPKj.exit, label %.lr.ph.i.i.i, !llvm.loop !434

_ZN7datalog17tr_infrastructureINS_15relation_traitsEE29default_permutation_rename_fnC2ERKNS_13relation_baseEPKj.exit: ; preds = %_ZN6vectorIjLb0EjE9push_backERKj.exit.i.i.i, %_ZNK6vectorIP4sortLb0EjE4sizeEv.exit.thread.i, %_ZNK6vectorIP4sortLb0EjE4sizeEv.exit.i
  %34 = getelementptr inbounds nuw i8, ptr %11, i64 16
  store i8 0, ptr %34, align 8, !tbaa !443
  %35 = getelementptr inbounds nuw i8, ptr %11, i64 24
  store ptr null, ptr %35, align 8, !tbaa !450
  br label %36

36:                                               ; preds = %_ZN7datalog17tr_infrastructureINS_15relation_traitsEE29default_permutation_rename_fnC2ERKNS_13relation_baseEPKj.exit, %3
  %.0 = phi ptr [ %9, %3 ], [ %11, %_ZN7datalog17tr_infrastructureINS_15relation_traitsEE29default_permutation_rename_fnC2ERKNS_13relation_baseEPKj.exit ]
  ret ptr %.0
}